Certificate:
    Data:
        Version: 3 (0x2)
        Serial Number: 4096 (0x1000)
        Signature Algorithm: sha256WithRSAEncryption
        Issuer: C=US, ST=NC, L=Chapel Hill, O=intermediate certificate, CN=intermediate certificate/emailAddress=intermediate@ca.org
        Validity
            Not Before: May 24 23:04:32 2016 GMT
            Not After : Jul  8 23:04:32 2018 GMT
        Subject: C=US, ST=NC, L=Chapel Hill, O=Happy Tuesday, OU=Happy Tuesday, CN=happytuesday.com/emailAddress=root@happytuesday.com
        Subject Public Key Info:
            Public Key Algorithm: id-ecPublicKey
            EC Public Key:
                pub: 
                    04:15:61:cb:71:7d:b0:5e:ec:25:d1:42:d9:87:27:
                    54:f2:57:fe:3c:b3:f0:df:04:40:97:17:b8:6d:a1:
                    85:38:c8:75:4d:8b:7e:fd:d0:d5:0a:d7:d1:9d:a3:
                    95:13:92:05:36:19:91:0f:db:b1:15:58:55:99:dd:
                    d0:91:9e:c5:45
                ASN1 OID: prime256v1
        X509v3 extensions:
            X509v3 Basic Constraints: 
                CA:FALSE
            Netscape Cert Type: 
                SSL Server
            Netscape Comment: 
                OpenSSL Generated Server Certificate
            X509v3 Subject Key Identifier: 
                59:BD:93:07:11:77:87:90:5D:FB:1F:80:81:C2:AF:7D:F4:A6:3F:FC
            X509v3 Authority Key Identifier: 
                keyid:3D:9A:C6:39:8E:B2:27:81:10:17:AF:66:F7:E9:DE:7A:65:6A:66:E0
                DirName:/C=US/ST=NC/L=Chapel Hill/O=Trust Anchor
                serial:10:00

            X509v3 Key Usage: critical
                Digital Signature, Key Encipherment
            X509v3 Extended Key Usage: 
                TLS Web Server Authentication
    Signature Algorithm: sha256WithRSAEncryption
        cf:d7:7d:fc:1e:92:3b:75:77:cd:61:a0:66:fc:22:87:fa:6b:
        ab:3a:99:9a:c7:72:b4:27:74:f2:2e:27:2e:80:60:40:fd:ab:
        26:e4:7b:ce:17:25:2d:39:85:f6:cf:03:52:b1:24:cc:e3:34:
        77:d6:e4:f3:98:a2:04:2e:6a:42:5d:a0:22:bd:ce:12:5c:7a:
        26:8d:14:1b:4d:48:cf:c6:c8:ef:e2:7b:83:13:a1:cb:b0:ef:
        cb:ec:17:3d:32:fe:fb:04:47:21:81:1e:f7:58:ce:75:3f:23:
        2c:fd:a0:78:18:66:53:b0:09:26:1d:57:38:69:8f:4f:42:6e:
        df:0c:d5:7a:06:fb:51:0a:18:59:62:d4:b8:a9:3a:c8:0b:34:
        c9:ee:23:38:e7:3e:d9:71:53:df:30:0c:52:5b:64:43:75:69:
        7a:a0:23:4b:f2:92:8b:bb:68:78:32:86:69:5a:6c:e5:38:a5:
        8e:4e:ac:c3:94:16:e9:1a:e3:1b:c6:3a:1d:da:54:e1:b3:33:
        c3:8b:1f:53:22:12:ea:2a:7e:7f:ac:a1:66:ad:95:2e:6d:a2:
        f3:50:3b:33:dc:2f:96:81:1a:ee:48:62:24:80:59:c4:e1:dd:
        6b:e2:78:20:21:87:a2:77:7a:0d:94:ec:c5:f6:5a:6a:fb:00:
        aa:c4:ee:62:a2:92:4a:69:06:b7:5c:00:9f:0b:5c:1c:13:85:
        9c:97:93:dd:93:97:8f:c1:e1:ec:9d:df:27:64:2d:af:af:03:
        4d:3b:1f:2c:aa:82:8b:c6:ec:23:e8:17:7b:ed:53:4d:06:7a:
        2e:6f:c5:95:46:08:2a:b9:c6:84:35:9c:d7:7e:e8:11:e2:17:
        ba:7c:e8:2b:d6:0e:2a:d6:aa:57:df:f9:c7:7c:81:2a:16:28:
        99:f9:40:cc:6f:81:e4:dd:25:c3:f6:d7:2c:f7:2b:c6:18:c5:
        67:0e:e8:e3:02:0b:2c:b0:b0:9f:89:e7:45:b0:01:ea:09:11:
        cc:dd:56:ea:0d:42:cf:9a:9e:6d:a2:d6:10:e5:b6:b5:44:21:
        92:28:8d:49:74:c8:1a:63:96:f0:c7:3e:78:ca:f4:d7:b2:61:
        ea:41:d9:66:4e:d5:fa:11:b1:66:c6:97:eb:1f:76:20:36:18:
        b5:57:5e:1a:75:99:0a:80:3d:d1:02:a6:d2:38:4d:9f:c4:ad:
        ff:ed:78:d6:15:33:c4:c3:9e:71:af:f8:9f:8e:55:03:7d:19:
        80:b0:6b:35:97:33:55:8d:1e:b5:ab:63:a4:fd:01:2c:77:1d:
        4a:39:8d:4b:6b:62:11:01:8b:bb:cc:19:e6:75:97:98:c0:ce:
        e5:d4:9c:2f:15:04:d6:71
-----BEGIN CERTIFICATE-----
MIIE/TCCAuWgAwIBAgICEAAwDQYJKoZIhvcNAQELBQAwgZoxCzAJBgNVBAYTAlVT
MQswCQYDVQQIDAJOQzEUMBIGA1UEBwwLQ2hhcGVsIEhpbGwxITAfBgNVBAoMGGlu
dGVybWVkaWF0ZSBjZXJ0aWZpY2F0ZTEhMB8GA1UEAwwYaW50ZXJtZWRpYXRlIGNl
cnRpZmljYXRlMSIwIAYJKoZIhvcNAQkBFhNpbnRlcm1lZGlhdGVAY2Eub3JnMB4X
DTE2MDUyNDIzMDQzMloXDTE4MDcwODIzMDQzMlowgaExCzAJBgNVBAYTAlVTMQsw
CQYDVQQIDAJOQzEUMBIGA1UEBwwLQ2hhcGVsIEhpbGwxFjAUBgNVBAoMDUhhcHB5
IFR1ZXNkYXkxFjAUBgNVBAsMDUhhcHB5IFR1ZXNkYXkxGTAXBgNVBAMMEGhhcHB5
dHVlc2RheS5jb20xJDAiBgkqhkiG9w0BCQEWFXJvb3RAaGFwcHl0dWVzZGF5LmNv
bTBZMBMGByqGSM49AgEGCCqGSM49AwEHA0IABBVhy3F9sF7sJdFC2YcnVPJX/jyz
8N8EQJcXuG2hhTjIdU2Lfv3Q1QrX0Z2jlROSBTYZkQ/bsRVYVZnd0JGexUWjggEN
MIIBCTAJBgNVHRMEAjAAMBEGCWCGSAGG+EIBAQQEAwIGQDAzBglghkgBhvhCAQ0E
JhYkT3BlblNTTCBHZW5lcmF0ZWQgU2VydmVyIENlcnRpZmljYXRlMB0GA1UdDgQW
BBRZvZMHEXeHkF37H4CBwq999KY//DBwBgNVHSMEaTBngBQ9msY5jrIngRAXr2b3
6d56ZWpm4KFLpEkwRzELMAkGA1UEBhMCVVMxCzAJBgNVBAgMAk5DMRQwEgYDVQQH
DAtDaGFwZWwgSGlsbDEVMBMGA1UECgwMVHJ1c3QgQW5jaG9yggIQADAOBgNVHQ8B
Af8EBAMCBaAwEwYDVR0lBAwwCgYIKwYBBQUHAwEwDQYJKoZIhvcNAQELBQADggIB
AM/Xffwekjt1d81hoGb8Iof6a6s6mZrHcrQndPIuJy6AYED9qybke84XJS05hfbP
A1KxJMzjNHfW5POYogQuakJdoCK9zhJceiaNFBtNSM/GyO/ie4MTocuw78vsFz0y
/vsERyGBHvdYznU/Iyz9oHgYZlOwCSYdVzhpj09Cbt8M1XoG+1EKGFli1LipOsgL
NMnuIzjnPtlxU98wDFJbZEN1aXqgI0vykou7aHgyhmlabOU4pY5OrMOUFuka4xvG
Oh3aVOGzM8OLH1MiEuoqfn+soWatlS5tovNQOzPcL5aBGu5IYiSAWcTh3WvieCAh
h6J3eg2U7MX2Wmr7AKrE7mKikkppBrdcAJ8LXBwThZyXk92Tl4/B4eyd3ydkLa+v
A007HyyqgovG7CPoF3vtU00Gei5vxZVGCCq5xoQ1nNd+6BHiF7p86CvWDirWqlff
+cd8gSoWKJn5QMxvgeTdJcP21yz3K8YYxWcO6OMCCyywsJ+J50WwAeoJEczdVuoN
Qs+anm2i1hDltrVEIZIojUl0yBpjlvDHPnjK9NeyYepB2WZO1foRsWbGl+sfdiA2
GLVXXhp1mQqAPdECptI4TZ/Erf/teNYVM8TDnnGv+J+OVQN9GYCwazWXM1WNHrWr
Y6T9ASx3HUo5jUtrYhEBi7vMGeZ1l5jAzuXUnC8VBNZx
-----END CERTIFICATE-----
